; Function Attrs: mustprogress uwtable
define void @_ZN3g2o26MarginalCovarianceCholesky17setCholeskyFactorEiPiS1_PdS1_(ptr noundef nonnull align 8 dereferenceable(120) %0, i32 noundef %1, ptr noundef %2, ptr noundef %3, ptr noundef %4, ptr noundef %5) local_unnamed_addr #5 align 2 personality ptr @__gxx_personality_v0 {
  store i32 %1, ptr %0, align 8
  %7 = getelementptr inbounds nuw i8, ptr %0, i64 8
  store ptr %2, ptr %7, align 8
  %8 = getelementptr inbounds nuw i8, ptr %0, i64 16
  store ptr %3, ptr %8, align 8
  %9 = getelementptr inbounds nuw i8, ptr %0, i64 24
  store ptr %4, ptr %9, align 8
  %10 = getelementptr inbounds nuw i8, ptr %0, i64 32
  store ptr %5, ptr %10, align 8
  %11 = getelementptr inbounds nuw i8, ptr %0, i64 96
  %12 = sext i32 %1 to i64
  %13 = getelementptr inbounds i8, ptr %0, i64 104
  %14 = load ptr, ptr %13, align 8
  %15 = load ptr, ptr %11, align 8
  %16 = ptrtoint ptr %14 to i64
  %17 = ptrtoint ptr %15 to i64
  %18 = sub i64 %16, %17
  %19 = ashr exact i64 %18, 3
  %20 = icmp ult i64 %19, %12
  br i1 %20, label %21, label %23

21:                                               ; preds = %6
  %22 = sub nuw nsw i64 %12, %19
  tail call void @_ZNSt6vectorIdSaIdEE17_M_default_appendEm(ptr noundef nonnull align 8 dereferenceable(24) %11, i64 noundef %22)
  br label %_ZNSt6vectorIdSaIdEE6resizeEm.exit

23:                                               ; preds = %6
  %24 = icmp ugt i64 %19, %12
  br i1 %24, label %25, label %_ZNSt6vectorIdSaIdEE6resizeEm.exit

25:                                               ; preds = %23
  %26 = getelementptr inbounds double, ptr %15, i64 %12
  %.not.i.i = icmp eq ptr %14, %26
  br i1 %.not.i.i, label %_ZNSt6vectorIdSaIdEE6resizeEm.exit, label %27

27:                                               ; preds = %25
  store ptr %26, ptr %13, align 8
  br label %_ZNSt6vectorIdSaIdEE6resizeEm.exit

_ZNSt6vectorIdSaIdEE6resizeEm.exit:               ; preds = %21, %23, %25, %27
  %28 = icmp sgt i32 %1, 0
  br i1 %28, label %.lr.ph.preheader, label %._crit_edge

.lr.ph.preheader:                                 ; preds = %_ZNSt6vectorIdSaIdEE6resizeEm.exit
  %wide.trip.count = zext nneg i32 %1 to i64
  br label %.lr.ph

.lr.ph:                                           ; preds = %.lr.ph.preheader, %.lr.ph
  %indvars.iv = phi i64 [ 0, %.lr.ph.preheader ], [ %indvars.iv.next, %.lr.ph ]
  %29 = load ptr, ptr %7, align 8
  %30 = getelementptr inbounds i32, ptr %29, i64 %indvars.iv
  %31 = load ptr, ptr %9, align 8
  %32 = load i32, ptr %30, align 4
  %33 = sext i32 %32 to i64
  %34 = getelementptr inbounds double, ptr %31, i64 %33
  %35 = load double, ptr %34, align 8
  %36 = fdiv double 1.000000e+00, %35
  %37 = load ptr, ptr %11, align 8
  %38 = getelementptr inbounds double, ptr %37, i64 %indvars.iv
  store double %36, ptr %38, align 8
  %indvars.iv.next = add nuw nsw i64 %indvars.iv, 1
  %exitcond.not = icmp eq i64 %indvars.iv.next, %wide.trip.count
  br i1 %exitcond.not, label %._crit_edge, label %.lr.ph, !llvm.loop !6

._crit_edge:                                      ; preds = %.lr.ph, %_ZNSt6vectorIdSaIdEE6resizeEm.exit
  ret void
}